#include <math.h>
#include <stdio.h>
#include <stdlib.h>
#include <string.h>

int main()
{
	int n,m[100],i,j;
	double x[1000],y[100],z[100]={0},p[100],g[100];
	scanf("%d",&n);
	for(j=0;j<n;j++)
	{
		scanf("%d",&m[j]);
		for(i=0;i<m[j];i++)
		{
			scanf("%lf",&x[i]);
			z[j]+=x[i];
		}
		p[j]=z[j]/m[j];
		for(i=0;i<m[j];i++)
			y[j]+=pow(x[i]-p[j],2);
		g[j]=sqrt(y[j]/m[j]);
	}
	for(j=0;j<n;j++)
		printf("%0.5lf\n",g[j]);
	return 0;
}


