; ModuleID = '38/1220.c'
source_filename = "38/1220.c"
target datalayout = "e-m:e-p270:32:32-p271:32:32-p272:64:64-i64:64-f80:128-n8:16:32:64-S128"
target triple = "x86_64-pc-linux-gnu"

@.str = private unnamed_addr constant [3 x i8] c"%d\00", align 1
@.str.1 = private unnamed_addr constant [4 x i8] c"%lf\00", align 1
@.str.2 = private unnamed_addr constant [8 x i8] c"%0.5lf\0A\00", align 1

; Function Attrs: noinline nounwind uwtable
define dso_local i32 @main() #0 {
  %1 = alloca i32, align 4
  %2 = alloca i32, align 4
  %3 = alloca [100 x i32], align 16
  %4 = alloca i32, align 4
  %5 = alloca i32, align 4
  %6 = alloca [1000 x double], align 16
  %7 = alloca [100 x double], align 16
  %8 = alloca [100 x double], align 16
  %9 = alloca [100 x double], align 16
  %10 = alloca [100 x double], align 16
  store i32 0, i32* %1, align 4
  %11 = bitcast [100 x double]* %8 to i8*
  call void @llvm.memset.p0i8.i64(i8* align 16 %11, i8 0, i64 800, i1 false)
  %12 = call i32 (i8*, ...) @__isoc99_scanf(i8* getelementptr inbounds ([3 x i8], [3 x i8]* @.str, i64 0, i64 0), i32* %2)
  store i32 0, i32* %5, align 4
  br label %13

13:                                               ; preds = %101, %0
  %14 = load i32, i32* %5, align 4
  %15 = load i32, i32* %2, align 4
  %16 = icmp slt i32 %14, %15
  br i1 %16, label %17, label %104

17:                                               ; preds = %13
  %18 = load i32, i32* %5, align 4
  %19 = sext i32 %18 to i64
  %20 = getelementptr inbounds [100 x i32], [100 x i32]* %3, i64 0, i64 %19
  %21 = call i32 (i8*, ...) @__isoc99_scanf(i8* getelementptr inbounds ([3 x i8], [3 x i8]* @.str, i64 0, i64 0), i32* %20)
  store i32 0, i32* %4, align 4
  br label %22

22:                                               ; preds = %43, %17
  %23 = load i32, i32* %4, align 4
  %24 = load i32, i32* %5, align 4
  %25 = sext i32 %24 to i64
  %26 = getelementptr inbounds [100 x i32], [100 x i32]* %3, i64 0, i64 %25
  %27 = load i32, i32* %26, align 4
  %28 = icmp slt i32 %23, %27
  br i1 %28, label %29, label %46

29:                                               ; preds = %22
  %30 = load i32, i32* %4, align 4
  %31 = sext i32 %30 to i64
  %32 = getelementptr inbounds [1000 x double], [1000 x double]* %6, i64 0, i64 %31
  %33 = call i32 (i8*, ...) @__isoc99_scanf(i8* getelementptr inbounds ([4 x i8], [4 x i8]* @.str.1, i64 0, i64 0), double* %32)
  %34 = load i32, i32* %4, align 4
  %35 = sext i32 %34 to i64
  %36 = getelementptr inbounds [1000 x double], [1000 x double]* %6, i64 0, i64 %35
  %37 = load double, double* %36, align 8
  %38 = load i32, i32* %5, align 4
  %39 = sext i32 %38 to i64
  %40 = getelementptr inbounds [100 x double], [100 x double]* %8, i64 0, i64 %39
  %41 = load double, double* %40, align 8
  %42 = fadd double %41, %37
  store double %42, double* %40, align 8
  br label %43

43:                                               ; preds = %29
  %44 = load i32, i32* %4, align 4
  %45 = add nsw i32 %44, 1
  store i32 %45, i32* %4, align 4
  br label %22

46:                                               ; preds = %22
  %47 = load i32, i32* %5, align 4
  %48 = sext i32 %47 to i64
  %49 = getelementptr inbounds [100 x double], [100 x double]* %8, i64 0, i64 %48
  %50 = load double, double* %49, align 8
  %51 = load i32, i32* %5, align 4
  %52 = sext i32 %51 to i64
  %53 = getelementptr inbounds [100 x i32], [100 x i32]* %3, i64 0, i64 %52
  %54 = load i32, i32* %53, align 4
  %55 = sitofp i32 %54 to double
  %56 = fdiv double %50, %55
  %57 = load i32, i32* %5, align 4
  %58 = sext i32 %57 to i64
  %59 = getelementptr inbounds [100 x double], [100 x double]* %9, i64 0, i64 %58
  store double %56, double* %59, align 8
  store i32 0, i32* %4, align 4
  br label %60

60:                                               ; preds = %83, %46
  %61 = load i32, i32* %4, align 4
  %62 = load i32, i32* %5, align 4
  %63 = sext i32 %62 to i64
  %64 = getelementptr inbounds [100 x i32], [100 x i32]* %3, i64 0, i64 %63
  %65 = load i32, i32* %64, align 4
  %66 = icmp slt i32 %61, %65
  br i1 %66, label %67, label %86

67:                                               ; preds = %60
  %68 = load i32, i32* %4, align 4
  %69 = sext i32 %68 to i64
  %70 = getelementptr inbounds [1000 x double], [1000 x double]* %6, i64 0, i64 %69
  %71 = load double, double* %70, align 8
  %72 = load i32, i32* %5, align 4
  %73 = sext i32 %72 to i64
  %74 = getelementptr inbounds [100 x double], [100 x double]* %9, i64 0, i64 %73
  %75 = load double, double* %74, align 8
  %76 = fsub double %71, %75
  %77 = call double @pow(double %76, double 2.000000e+00) #4
  %78 = load i32, i32* %5, align 4
  %79 = sext i32 %78 to i64
  %80 = getelementptr inbounds [100 x double], [100 x double]* %7, i64 0, i64 %79
  %81 = load double, double* %80, align 8
  %82 = fadd double %81, %77
  store double %82, double* %80, align 8
  br label %83

83:                                               ; preds = %67
  %84 = load i32, i32* %4, align 4
  %85 = add nsw i32 %84, 1
  store i32 %85, i32* %4, align 4
  br label %60

86:                                               ; preds = %60
  %87 = load i32, i32* %5, align 4
  %88 = sext i32 %87 to i64
  %89 = getelementptr inbounds [100 x double], [100 x double]* %7, i64 0, i64 %88
  %90 = load double, double* %89, align 8
  %91 = load i32, i32* %5, align 4
  %92 = sext i32 %91 to i64
  %93 = getelementptr inbounds [100 x i32], [100 x i32]* %3, i64 0, i64 %92
  %94 = load i32, i32* %93, align 4
  %95 = sitofp i32 %94 to double
  %96 = fdiv double %90, %95
  %97 = call double @sqrt(double %96) #4
  %98 = load i32, i32* %5, align 4
  %99 = sext i32 %98 to i64
  %100 = getelementptr inbounds [100 x double], [100 x double]* %10, i64 0, i64 %99
  store double %97, double* %100, align 8
  br label %101

101:                                              ; preds = %86
  %102 = load i32, i32* %5, align 4
  %103 = add nsw i32 %102, 1
  store i32 %103, i32* %5, align 4
  br label %13

104:                                              ; preds = %13
  store i32 0, i32* %5, align 4
  br label %105

105:                                              ; preds = %115, %104
  %106 = load i32, i32* %5, align 4
  %107 = load i32, i32* %2, align 4
  %108 = icmp slt i32 %106, %107
  br i1 %108, label %109, label %118

109:                                              ; preds = %105
  %110 = load i32, i32* %5, align 4
  %111 = sext i32 %110 to i64
  %112 = getelementptr inbounds [100 x double], [100 x double]* %10, i64 0, i64 %111
  %113 = load double, double* %112, align 8
  %114 = call i32 (i8*, ...) @printf(i8* getelementptr inbounds ([8 x i8], [8 x i8]* @.str.2, i64 0, i64 0), double %113)
  br label %115

115:                                              ; preds = %109
  %116 = load i32, i32* %5, align 4
  %117 = add nsw i32 %116, 1
  store i32 %117, i32* %5, align 4
  br label %105

118:                                              ; preds = %105
  ret i32 0
}

; Function Attrs: argmemonly nounwind willreturn
declare void @llvm.memset.p0i8.i64(i8* nocapture writeonly, i8, i64, i1 immarg) #1

declare dso_local i32 @__isoc99_scanf(i8*, ...) #2

; Function Attrs: nounwind
declare dso_local double @pow(double, double) #3

; Function Attrs: nounwind
declare dso_local double @sqrt(double) #3

declare dso_local i32 @printf(i8*, ...) #2


!llvm.module.flags = !{!0}
!llvm.ident = !{!1}

!0 = !{i32 1, !"wchar_size", i32 4}
!1 = !{!"clang version 10.0.0-4ubuntu1 "}
